; Function Attrs: mustprogress nounwind uwtable
define dso_local void @_ZN4node6crypto12PBKDF2ConfigC2EOS1_(ptr noundef nonnull align 8 dereferenceable(80) %this, ptr noundef nonnull align 8 dereferenceable(80) %other) unnamed_addr #3 align 2 {
entry:
  store ptr getelementptr inbounds ({ [10 x ptr] }, ptr @_ZTVN4node6crypto12PBKDF2ConfigE, i64 0, i32 0, i64 2), ptr %this, align 8
  %mode = getelementptr inbounds i8, ptr %this, i64 8
  %mode2 = getelementptr inbounds i8, ptr %other, i64 8
  %0 = load i32, ptr %mode2, align 8
  store i32 %0, ptr %mode, align 8
  %pass = getelementptr inbounds i8, ptr %this, i64 16
  %pass3 = getelementptr inbounds i8, ptr %other, i64 16
  tail call void @_ZN4node6crypto10ByteSourceC1EOS1_(ptr noundef nonnull align 8 dereferenceable(24) %pass, ptr noundef nonnull align 8 dereferenceable(24) %pass3) #19
  %salt = getelementptr inbounds i8, ptr %this, i64 40
  %salt4 = getelementptr inbounds i8, ptr %other, i64 40
  tail call void @_ZN4node6crypto10ByteSourceC1EOS1_(ptr noundef nonnull align 8 dereferenceable(24) %salt, ptr noundef nonnull align 8 dereferenceable(24) %salt4) #19
  %iterations = getelementptr inbounds i8, ptr %this, i64 64
  %iterations5 = getelementptr inbounds i8, ptr %other, i64 64
  %1 = load i32, ptr %iterations5, align 8
  store i32 %1, ptr %iterations, align 8
  %length = getelementptr inbounds i8, ptr %this, i64 68
  %length6 = getelementptr inbounds i8, ptr %other, i64 68
  %2 = load i32, ptr %length6, align 4
  store i32 %2, ptr %length, align 4
  %digest = getelementptr inbounds i8, ptr %this, i64 72
  %digest7 = getelementptr inbounds i8, ptr %other, i64 72
  %3 = load ptr, ptr %digest7, align 8
  store ptr %3, ptr %digest, align 8
  ret void
}